(dp0
S'lap_boundary_smoothing'
p1
I1
sS'show_loaded'
p2
I0
sS'thread_num'
p3
I4
sS'euc_min_cluster_size'
p4
I10
sS'pl_distance'
p5
I2
sS'up_sampling_radius'
p6
F3.0
sS'mls_upsampling_step_size'
p7
F0.015
sS'normal_centroid'
p8
I1
sS'iterations'
p9
I100
sS'normal_minus'
p10
I0
sS'greedy_min_angle'
p11
F0.1
sS'euc_max_cluster_size'
p12
I25000
sS'mls_polygon_order'
p13
I2
sS'lap_convergence'
p14
F0.0001
sS'euc_cluster_tolerance'
p15
I2
sS'mls_dilation_voxel'
p16
F0.01
sS'lap_max_iter'
p17
I400000
sS'scale'
p18
F1.1
sS'reg_curvature'
p19
F1.0
sS'cluster_type'
p20
I2
sS'type_triangulation'
p21
I0
sS'poisson_iso_divide'
p22
I9
sS'poisson_depth'
p23
I9
sS'mls_compute_normals'
p24
I0
sS'poisson_radius'
p25
I2
sS'visualisation'
p26
I0
sS'greedy_maximum_neighbors'
p27
I1000
sS'reg_radius'
p28
F0.03
sS'reg_max_cluster'
p29
I25000
sS'lap_relaxation_factor'
p30
F0.5
sS'cl_radius'
p31
F300.0
sS'nr_k'
p32
I50
sS'pl_max_iter'
p33
I100
sS'poisson_solver_divide'
p34
I9
sS'mls_polygon_fit'
p35
I1
sS'mls_sqt_gauss'
p36
F0.0
sS'normal_radius'
p37
I300
sS'greedy_mu'
p38
F2.8
sS'distance_threshold'
p39
F0.1
sS'mls_upsampling'
p40
I0
sS'poisson_confidence'
p41
I0
sS'reg_num_neighbours'
p42
I50
sS'cloud_multipler'
p43
F1.5
sS'reg_min_cluster'
p44
I10
sS'lap_edge_smoothing'
p45
I1
sS'stddev_ml'
p46
F1.0
sS'show_clustered'
p47
I0
sS'mls_upsampling_radius'
p48
F0.025
sS'greedy_surface_angle'
p49
F0.785398163
sS'mls_radius'
p50
F0.0
sS'cluster_tolerance'
p51
I2
sS'poisson_samples_per_node'
p52
F2.5
sS'savepcd'
p53
I1
sS'up_sampling_step'
p54
I20
sS'mls_dilation_iter'
p55
I2
sS'up_search_radius'
p56
F3.0
sS'greedy_max_angle'
p57
F2.094395102
sS'greedy_radius'
p58
F3.0
sS'normal_k'
p59
I20
s.